Certificate:
    Data:
        Version: 3 (0x2)
        Serial Number: 1 (0x1)
        Signature Algorithm: sha1WithRSAEncryption
        Issuer: C=BR, ST=RS, L=Caxias, O=ucs, OU=siti, CN=osdvt.ucs.br
        Validity
            Not Before: Nov 22 16:01:41 2011 GMT
            Not After : Apr  9 16:01:41 2039 GMT
        Subject: C=BR, ST=RS, O=ucs, OU=siti, CN=osdvt.ucs.br
        Subject Public Key Info:
            Public Key Algorithm: rsaEncryption
                Public-Key: (1024 bit)
                Modulus:
                    00:d7:d3:35:c7:93:71:af:b1:fb:38:e6:d9:9a:53:
                    94:44:7b:4d:25:79:52:ea:e0:de:5f:7c:ae:f9:29:
                    bd:cb:a9:03:db:77:ce:92:5d:59:ab:20:22:02:21:
                    70:98:e8:02:d0:49:27:66:0a:52:f8:aa:eb:85:ee:
                    d9:c8:3e:9a:60:df:60:db:20:7b:ef:0a:28:13:68:
                    94:96:78:83:7f:d8:93:6d:70:15:03:b9:08:32:f4:
                    1d:34:56:d7:68:dc:f6:1f:d9:ee:1c:ab:f3:59:f5:
                    25:fd:14:0d:ea:2f:85:2c:81:77:5e:75:d2:06:56:
                    8a:ef:99:c6:ab:11:d6:20:69
                Exponent: 65537 (0x10001)
        X509v3 extensions:
            X509v3 Basic Constraints: 
                CA:FALSE
            Netscape Comment: 
                OpenSSL Generated Certificate
            X509v3 Subject Key Identifier: 
                2C:9D:0D:0D:EA:D6:52:76:97:79:D1:48:82:33:84:29:02:88:C4:B7
            X509v3 Authority Key Identifier: 
                keyid:6D:82:11:44:C3:CE:8E:17:28:51:A6:78:6A:40:78:B3:F7:02:AB:8A

    Signature Algorithm: sha1WithRSAEncryption
        4b:f9:43:65:be:df:c3:38:ea:e8:01:95:76:f1:c0:58:b8:75:
        5b:db:cd:5e:57:77:22:a3:62:c5:04:d7:2d:f6:e3:18:94:ca:
        1d:6e:87:45:17:db:db:79:45:ba:12:d9:e8:06:5d:0a:7c:29:
        10:37:e1:96:ab:30:8d:cc:f2:15:ca:48:92:ef:8f:38:2e:9f:
        17:99:fa:5f:ae:33:f3:3a:51:cd:d5:03:e1:dd:27:f8:45:29:
        8a:89:2a:37:5f:a0:15:03:e5:53:c3:5b:8d:ef:24:95:93:76:
        60:1d:56:00:31:94:13:37:dc:de:d9:dc:80:ad:bf:c1:41:1c:
        d5:47
-----BEGIN CERTIFICATE-----
MIICnjCCAgegAwIBAgIBATANBgkqhkiG9w0BAQUFADBfMQswCQYDVQQGEwJCUjEL
MAkGA1UECAwCUlMxDzANBgNVBAcMBkNheGlhczEMMAoGA1UECgwDdWNzMQ0wCwYD
VQQLDARzaXRpMRUwEwYDVQQDDAxvc2R2dC51Y3MuYnIwHhcNMTExMTIyMTYwMTQx
WhcNMzkwNDA5MTYwMTQxWjBOMQswCQYDVQQGEwJCUjELMAkGA1UECAwCUlMxDDAK
BgNVBAoMA3VjczENMAsGA1UECwwEc2l0aTEVMBMGA1UEAwwMb3NkdnQudWNzLmJy
MIGfMA0GCSqGSIb3DQEBAQUAA4GNADCBiQKBgQDX0zXHk3Gvsfs45tmaU5REe00l
eVLq4N5ffK75Kb3LqQPbd86SXVmrICICIXCY6ALQSSdmClL4quuF7tnIPppg32Db
IHvvCigTaJSWeIN/2JNtcBUDuQgy9B00Vtdo3PYf2e4cq/NZ9SX9FA3qL4UsgXde
ddIGVorvmcarEdYgaQIDAQABo3sweTAJBgNVHRMEAjAAMCwGCWCGSAGG+EIBDQQf
Fh1PcGVuU1NMIEdlbmVyYXRlZCBDZXJ0aWZpY2F0ZTAdBgNVHQ4EFgQULJ0NDerW
UnaXedFIgjOEKQKIxLcwHwYDVR0jBBgwFoAUbYIRRMPOjhcoUaZ4akB4s/cCq4ow
DQYJKoZIhvcNAQEFBQADgYEAS/lDZb7fwzjq6AGVdvHAWLh1W9vNXld3IqNixQTX
LfbjGJTKHW6HRRfb23lFuhLZ6AZdCnwpEDfhlqswjczyFcpIku+POC6fF5n6X64z
8zpRzdUD4d0n+EUpiokqN1+gFQPlU8Nbje8klZN2YB1WADGUEzfc3tncgK2/wUEc
1Uc=
-----END CERTIFICATE-----
